Certificate:
    Data:
        Version: 3 (0x2)
        Serial Number: 1 (0x1)
    Signature Algorithm: sha256WithRSAEncryption
        Issuer: C=CN, ST=Shanghai, L=Pudong, O=MyOrganization, OU=MyOrganizationalUnit, CN=MyOrganization CA/name=EasyRSA/emailAddress=me@myhost.mydomain
        Validity
            Not Before: Aug 21 04:53:47 2016 GMT
            Not After : Aug 19 04:53:47 2026 GMT
        Subject: C=CN, ST=Shanghai, L=Pudong, O=MyOrganization, OU=MyOrganizationalUnit, CN=server/name=EasyRSA/emailAddress=me@myhost.mydomain
        Subject Public Key Info:
            Public Key Algorithm: rsaEncryption
                Public-Key: (2048 bit)
                Modulus:
                    00:f0:17:79:29:b5:cc:3b:43:76:93:21:6e:91:1c:
                    d6:a6:5a:a7:3e:96:ea:29:a8:69:47:15:9f:ec:cc:
                    ac:0f:d4:06:39:b7:fc:ee:85:c2:ea:6a:78:61:56:
                    a3:b0:c3:86:c9:f3:b8:15:01:dc:81:a7:32:e7:33:
                    5f:a3:14:dd:7f:9a:f1:b6:b4:0f:73:4f:11:51:70:
                    63:7e:8c:18:65:2d:cf:5d:dd:13:83:66:b6:39:3e:
                    a0:89:49:f8:d4:f5:62:50:cb:d6:28:b7:2f:27:6d:
                    9b:83:87:f7:b0:d1:55:40:cb:81:31:f0:0d:5f:71:
                    88:29:c2:ec:0b:fe:df:e1:a4:b9:c9:95:4f:85:b0:
                    9a:8a:25:dc:cd:86:cc:3a:a6:28:29:87:86:7d:f0:
                    36:72:7f:31:ee:a7:67:96:21:6e:03:0b:11:76:e0:
                    2d:d7:cc:93:68:dd:1e:e9:21:c6:41:24:ff:cf:81:
                    fc:49:80:6f:d6:42:1e:7d:50:c3:b5:c0:a0:bd:9e:
                    2e:13:9a:56:69:86:f3:00:d2:86:bf:61:04:fb:72:
                    c2:34:dc:09:17:08:a4:0b:d6:20:23:bb:88:a0:aa:
                    0a:8f:5a:67:77:f1:23:23:c2:91:ec:b5:27:30:6d:
                    57:a0:30:5b:7d:4d:90:b4:a3:5c:2a:80:6f:38:93:
                    bc:05
                Exponent: 65537 (0x10001)
        X509v3 extensions:
            X509v3 Basic Constraints: 
                CA:FALSE
            Netscape Cert Type: 
                SSL Server
            Netscape Comment: 
                Easy-RSA Generated Server Certificate
            X509v3 Subject Key Identifier: 
                05:9C:14:79:2C:C9:FA:19:95:4E:16:18:18:9E:AA:E8:67:16:98:30
            X509v3 Authority Key Identifier: 
                keyid:2B:3B:6D:19:91:C6:66:5E:32:0A:C5:A3:08:67:42:1F:2F:8F:79:70
                DirName:/C=CN/ST=Shanghai/L=Pudong/O=MyOrganization/OU=MyOrganizationalUnit/CN=MyOrganization CA/name=EasyRSA/emailAddress=me@myhost.mydomain
                serial:A7:2B:60:99:FA:A7:5F:5F

            X509v3 Extended Key Usage: 
                TLS Web Server Authentication
            X509v3 Key Usage: 
                Digital Signature, Key Encipherment
    Signature Algorithm: sha256WithRSAEncryption
         7a:1d:ff:65:58:05:27:57:2b:24:da:37:44:a6:1b:15:d7:e8:
         fd:81:9f:f6:32:48:6a:72:8c:7b:a8:a0:0f:ab:33:b4:af:ad:
         89:bc:e4:a5:39:b5:36:67:9a:72:57:be:30:20:50:96:96:56:
         2d:c4:53:32:e3:21:1e:32:bb:e7:e4:d3:d2:14:3c:90:e7:a8:
         fb:79:05:a1:57:f5:1f:6d:f5:0b:a4:9a:42:2a:df:0a:0a:cc:
         b3:14:b6:18:46:27:59:7a:4f:c0:86:1a:62:b5:05:94:8b:56:
         38:00:7f:0f:56:71:56:69:e7:7e:46:c8:7a:bc:f0:a5:d3:2e:
         f4:4b:db:ee:22:4b:96:76:6b:45:79:db:13:0e:1b:7d:29:d1:
         74:ea:2e:ba:b0:a1:bc:0f:b9:47:3d:22:ef:c8:fa:f2:48:37:
         9b:b6:c5:9b:81:48:40:05:71:9a:b9:53:3f:97:23:10:0d:da:
         ee:9d:72:c3:0f:3d:e5:65:d7:c0:e6:61:47:e1:84:e7:3f:f2:
         87:62:d4:d0:79:df:34:af:5c:6e:eb:68:9a:3d:0a:1f:fc:d1:
         23:32:c0:36:a7:2b:02:74:0d:15:d4:51:b8:92:ef:58:6c:b7:
         51:e6:e2:56:f6:a7:5c:c6:94:bc:cc:d6:86:57:36:54:8d:80:
         72:28:b2:f1
-----BEGIN CERTIFICATE-----
MIIFczCCBFugAwIBAgIBATANBgkqhkiG9w0BAQsFADCBujELMAkGA1UEBhMCQ04x
ETAPBgNVBAgTCFNoYW5naGFpMQ8wDQYDVQQHEwZQdWRvbmcxFzAVBgNVBAoTDk15
T3JnYW5pemF0aW9uMR0wGwYDVQQLExRNeU9yZ2FuaXphdGlvbmFsVW5pdDEaMBgG
A1UEAxMRTXlPcmdhbml6YXRpb24gQ0ExEDAOBgNVBCkTB0Vhc3lSU0ExITAfBgkq
hkiG9w0BCQEWEm1lQG15aG9zdC5teWRvbWFpbjAeFw0xNjA4MjEwNDUzNDdaFw0y
NjA4MTkwNDUzNDdaMIGvMQswCQYDVQQGEwJDTjERMA8GA1UECBMIU2hhbmdoYWkx
DzANBgNVBAcTBlB1ZG9uZzEXMBUGA1UEChMOTXlPcmdhbml6YXRpb24xHTAbBgNV
BAsTFE15T3JnYW5pemF0aW9uYWxVbml0MQ8wDQYDVQQDEwZzZXJ2ZXIxEDAOBgNV
BCkTB0Vhc3lSU0ExITAfBgkqhkiG9w0BCQEWEm1lQG15aG9zdC5teWRvbWFpbjCC
ASIwDQYJKoZIhvcNAQEBBQADggEPADCCAQoCggEBAPAXeSm1zDtDdpMhbpEc1qZa
pz6W6imoaUcVn+zMrA/UBjm3/O6FwupqeGFWo7DDhsnzuBUB3IGnMuczX6MU3X+a
8ba0D3NPEVFwY36MGGUtz13dE4Nmtjk+oIlJ+NT1YlDL1ii3Lydtm4OH97DRVUDL
gTHwDV9xiCnC7Av+3+GkucmVT4Wwmool3M2GzDqmKCmHhn3wNnJ/Me6nZ5YhbgML
EXbgLdfMk2jdHukhxkEk/8+B/EmAb9ZCHn1Qw7XAoL2eLhOaVmmG8wDShr9hBPty
wjTcCRcIpAvWICO7iKCqCo9aZ3fxIyPCkey1JzBtV6AwW31NkLSjXCqAbziTvAUC
AwEAAaOCAYswggGHMAkGA1UdEwQCMAAwEQYJYIZIAYb4QgEBBAQDAgZAMDQGCWCG
SAGG+EIBDQQnFiVFYXN5LVJTQSBHZW5lcmF0ZWQgU2VydmVyIENlcnRpZmljYXRl
MB0GA1UdDgQWBBQFnBR5LMn6GZVOFhgYnqroZxaYMDCB7wYDVR0jBIHnMIHkgBQr
O20ZkcZmXjIKxaMIZ0IfL495cKGBwKSBvTCBujELMAkGA1UEBhMCQ04xETAPBgNV
BAgTCFNoYW5naGFpMQ8wDQYDVQQHEwZQdWRvbmcxFzAVBgNVBAoTDk15T3JnYW5p
emF0aW9uMR0wGwYDVQQLExRNeU9yZ2FuaXphdGlvbmFsVW5pdDEaMBgGA1UEAxMR
TXlPcmdhbml6YXRpb24gQ0ExEDAOBgNVBCkTB0Vhc3lSU0ExITAfBgkqhkiG9w0B
CQEWEm1lQG15aG9zdC5teWRvbWFpboIJAKcrYJn6p19fMBMGA1UdJQQMMAoGCCsG
AQUFBwMBMAsGA1UdDwQEAwIFoDANBgkqhkiG9w0BAQsFAAOCAQEAeh3/ZVgFJ1cr
JNo3RKYbFdfo/YGf9jJIanKMe6igD6sztK+tibzkpTm1Nmeacle+MCBQlpZWLcRT
MuMhHjK75+TT0hQ8kOeo+3kFoVf1H231C6SaQirfCgrMsxS2GEYnWXpPwIYaYrUF
lItWOAB/D1ZxVmnnfkbIerzwpdMu9Evb7iJLlnZrRXnbEw4bfSnRdOouurChvA+5
Rz0i78j68kg3m7bFm4FIQAVxmrlTP5cjEA3a7p1yww895WXXwOZhR+GE5z/yh2LU
0HnfNK9cbutomj0KH/zRIzLANqcrAnQNFdRRuJLvWGy3UebiVvanXMaUvMzWhlc2
VI2Aciiy8Q==
-----END CERTIFICATE-----
