Certificate:
    Data:
        Version: 3 (0x2)
        Serial Number: 3 (0x3)
    Signature Algorithm: sha256WithRSAEncryption
        Issuer: C=CN, ST=Shanghai, L=Pudong, O=MyOrganization, OU=MyOrganizationalUnit, CN=MyOrganization CA/name=EasyRSA/emailAddress=me@myhost.mydomain
        Validity
            Not Before: Aug 21 04:54:54 2016 GMT
            Not After : Aug 19 04:54:54 2026 GMT
        Subject: C=CN, ST=Shanghai, L=Pudong, O=MyOrganization, OU=MyOrganizationalUnit, CN=client2/name=EasyRSA/emailAddress=me@myhost.mydomain
        Subject Public Key Info:
            Public Key Algorithm: rsaEncryption
                Public-Key: (2048 bit)
                Modulus:
                    00:ee:44:e2:93:01:b6:f6:8b:2f:1d:9e:3c:8e:26:
                    16:bc:b5:d8:f0:b1:e3:08:a2:fa:6a:35:ff:44:b3:
                    23:f0:83:a9:77:09:01:c5:35:9f:6c:f8:8e:53:c3:
                    e4:90:be:53:99:76:fa:0e:3b:ff:2c:c5:95:63:f8:
                    1a:8d:a3:51:f8:27:41:23:6a:fd:84:b8:ec:8b:96:
                    f2:2c:2a:0b:9f:e8:91:4b:d6:c0:ed:ee:74:ec:d3:
                    f3:a3:90:f1:9b:16:19:0c:64:89:fc:09:4a:48:48:
                    10:2d:ab:f3:0a:92:11:68:35:d2:fc:0a:1b:5d:4b:
                    25:b2:7c:34:6d:a6:46:6a:72:2f:e2:6c:c0:83:58:
                    dc:8c:e5:37:1a:f0:09:bd:d5:77:71:bd:66:3d:5d:
                    e5:ae:4b:d9:8a:d1:3f:08:aa:28:3d:f2:f3:1e:d2:
                    e1:a2:fe:e8:48:a8:1e:96:8c:41:b8:95:04:c5:2d:
                    cc:7e:11:87:b7:e0:6e:9b:7c:77:c2:ba:40:d4:b6:
                    dd:72:09:c4:2a:46:26:83:98:9d:e3:8c:6f:b8:38:
                    26:ce:9a:a3:9f:f5:fc:ac:7a:a2:ab:d7:35:82:68:
                    9e:36:60:62:fc:c7:ce:6c:f8:d5:c4:2e:5b:c5:c3:
                    36:09:17:0d:55:d4:54:28:56:fb:b8:3f:c6:e7:95:
                    b8:63
                Exponent: 65537 (0x10001)
        X509v3 extensions:
            X509v3 Basic Constraints: 
                CA:FALSE
            Netscape Comment: 
                Easy-RSA Generated Certificate
            X509v3 Subject Key Identifier: 
                8D:DF:52:01:C2:EB:B1:B3:B9:3C:0B:FD:65:14:42:A3:8E:D4:55:41
            X509v3 Authority Key Identifier: 
                keyid:2B:3B:6D:19:91:C6:66:5E:32:0A:C5:A3:08:67:42:1F:2F:8F:79:70
                DirName:/C=CN/ST=Shanghai/L=Pudong/O=MyOrganization/OU=MyOrganizationalUnit/CN=MyOrganization CA/name=EasyRSA/emailAddress=me@myhost.mydomain
                serial:A7:2B:60:99:FA:A7:5F:5F

            X509v3 Extended Key Usage: 
                TLS Web Client Authentication
            X509v3 Key Usage: 
                Digital Signature
    Signature Algorithm: sha256WithRSAEncryption
         5d:8f:a0:f5:a1:64:61:37:bd:43:de:80:85:81:cb:d0:7c:a8:
         58:0e:64:eb:02:33:41:72:c0:db:1d:4b:fa:3f:ea:9c:65:f1:
         4a:d2:64:05:aa:87:5f:6c:12:3a:01:08:63:ab:02:4f:1a:db:
         3c:7c:66:ec:cc:04:cb:cf:85:5d:d0:46:a2:40:cb:ba:99:02:
         2d:01:1f:c0:bd:b8:f4:3d:8e:73:c4:bc:e0:57:1c:8a:74:bd:
         37:99:55:85:79:68:03:bc:65:d7:cb:df:e3:4b:4c:a6:10:35:
         62:9d:0c:20:ab:9a:94:e2:96:8a:17:9e:3e:a4:f2:92:a0:da:
         cc:cf:9a:64:fa:a9:2e:55:7b:5f:ca:97:ca:60:e8:5c:1b:73:
         35:e4:76:df:0f:17:22:4d:72:df:1c:ac:3a:42:9b:ac:b7:12:
         9e:ef:a7:67:84:b9:1d:8f:b9:6a:24:07:0e:0d:11:2c:53:07:
         ba:55:14:5f:8e:49:48:13:70:9d:f9:2c:f7:40:91:5e:ac:95:
         ff:c6:f3:f2:78:0e:27:d4:53:b7:13:ec:08:1a:c7:59:de:72:
         fe:2f:c7:eb:85:c1:39:85:42:93:76:3d:1f:2a:8e:c0:02:af:
         9b:f0:ac:9a:53:81:be:d8:17:f1:aa:80:ab:3b:d0:f6:a7:8c:
         0a:8a:56:e5
-----BEGIN CERTIFICATE-----
MIIFWjCCBEKgAwIBAgIBAzANBgkqhkiG9w0BAQsFADCBujELMAkGA1UEBhMCQ04x
ETAPBgNVBAgTCFNoYW5naGFpMQ8wDQYDVQQHEwZQdWRvbmcxFzAVBgNVBAoTDk15
T3JnYW5pemF0aW9uMR0wGwYDVQQLExRNeU9yZ2FuaXphdGlvbmFsVW5pdDEaMBgG
A1UEAxMRTXlPcmdhbml6YXRpb24gQ0ExEDAOBgNVBCkTB0Vhc3lSU0ExITAfBgkq
hkiG9w0BCQEWEm1lQG15aG9zdC5teWRvbWFpbjAeFw0xNjA4MjEwNDU0NTRaFw0y
NjA4MTkwNDU0NTRaMIGwMQswCQYDVQQGEwJDTjERMA8GA1UECBMIU2hhbmdoYWkx
DzANBgNVBAcTBlB1ZG9uZzEXMBUGA1UEChMOTXlPcmdhbml6YXRpb24xHTAbBgNV
BAsTFE15T3JnYW5pemF0aW9uYWxVbml0MRAwDgYDVQQDEwdjbGllbnQyMRAwDgYD
VQQpEwdFYXN5UlNBMSEwHwYJKoZIhvcNAQkBFhJtZUBteWhvc3QubXlkb21haW4w
ggEiMA0GCSqGSIb3DQEBAQUAA4IBDwAwggEKAoIBAQDuROKTAbb2iy8dnjyOJha8
tdjwseMIovpqNf9EsyPwg6l3CQHFNZ9s+I5Tw+SQvlOZdvoOO/8sxZVj+BqNo1H4
J0Ejav2EuOyLlvIsKguf6JFL1sDt7nTs0/OjkPGbFhkMZIn8CUpISBAtq/MKkhFo
NdL8ChtdSyWyfDRtpkZqci/ibMCDWNyM5Tca8Am91XdxvWY9XeWuS9mK0T8Iqig9
8vMe0uGi/uhIqB6WjEG4lQTFLcx+EYe34G6bfHfCukDUtt1yCcQqRiaDmJ3jjG+4
OCbOmqOf9fyseqKr1zWCaJ42YGL8x85s+NXELlvFwzYJFw1V1FQoVvu4P8bnlbhj
AgMBAAGjggFxMIIBbTAJBgNVHRMEAjAAMC0GCWCGSAGG+EIBDQQgFh5FYXN5LVJT
QSBHZW5lcmF0ZWQgQ2VydGlmaWNhdGUwHQYDVR0OBBYEFI3fUgHC67GzuTwL/WUU
QqOO1FVBMIHvBgNVHSMEgecwgeSAFCs7bRmRxmZeMgrFowhnQh8vj3lwoYHApIG9
MIG6MQswCQYDVQQGEwJDTjERMA8GA1UECBMIU2hhbmdoYWkxDzANBgNVBAcTBlB1
ZG9uZzEXMBUGA1UEChMOTXlPcmdhbml6YXRpb24xHTAbBgNVBAsTFE15T3JnYW5p
emF0aW9uYWxVbml0MRowGAYDVQQDExFNeU9yZ2FuaXphdGlvbiBDQTEQMA4GA1UE
KRMHRWFzeVJTQTEhMB8GCSqGSIb3DQEJARYSbWVAbXlob3N0Lm15ZG9tYWluggkA
pytgmfqnX18wEwYDVR0lBAwwCgYIKwYBBQUHAwIwCwYDVR0PBAQDAgeAMA0GCSqG
SIb3DQEBCwUAA4IBAQBdj6D1oWRhN71D3oCFgcvQfKhYDmTrAjNBcsDbHUv6P+qc
ZfFK0mQFqodfbBI6AQhjqwJPGts8fGbszATLz4Vd0EaiQMu6mQItAR/Avbj0PY5z
xLzgVxyKdL03mVWFeWgDvGXXy9/jS0ymEDVinQwgq5qU4paKF54+pPKSoNrMz5pk
+qkuVXtfypfKYOhcG3M15HbfDxciTXLfHKw6QpustxKe76dnhLkdj7lqJAcODREs
Uwe6VRRfjklIE3Cd+Sz3QJFerJX/xvPyeA4n1FO3E+wIGsdZ3nL+L8frhcE5hUKT
dj0fKo7AAq+b8KyaU4G+2BfxqoCrO9D2p4wKilbl
-----END CERTIFICATE-----
