Certificate:
    Data:
        Version: 3 (0x2)
        Serial Number: 2 (0x2)
    Signature Algorithm: sha256WithRSAEncryption
        Issuer: C=CN, ST=Shanghai, L=Pudong, O=MyOrganization, OU=MyOrganizationalUnit, CN=MyOrganization CA/name=EasyRSA/emailAddress=me@myhost.mydomain
        Validity
            Not Before: Aug 21 04:54:34 2016 GMT
            Not After : Aug 19 04:54:34 2026 GMT
        Subject: C=CN, ST=Shanghai, L=Pudong, O=MyOrganization, OU=MyOrganizationalUnit, CN=client1/name=EasyRSA/emailAddress=me@myhost.mydomain
        Subject Public Key Info:
            Public Key Algorithm: rsaEncryption
                Public-Key: (2048 bit)
                Modulus:
                    00:d0:ba:88:1d:96:09:ae:ba:e8:bb:17:cc:68:3e:
                    4c:d3:01:03:74:26:64:9d:bc:54:c6:64:18:3a:ca:
                    c9:6c:bd:36:76:47:db:7c:51:00:cc:2e:b2:65:05:
                    5e:65:e6:39:88:c2:7a:97:7c:a3:4f:9b:ba:52:05:
                    a7:1b:5b:7f:6a:87:ee:5d:70:32:c9:a9:08:ba:c5:
                    32:c5:53:38:85:e3:9c:27:5b:a7:73:2a:11:50:1b:
                    7f:ae:62:5b:a0:dc:d4:35:00:31:1f:4f:5d:6c:37:
                    ec:bc:0a:f4:17:8b:02:71:ee:e7:4c:b1:79:3d:f8:
                    26:48:d2:23:07:d7:97:9b:c5:1c:76:a7:ca:e1:4c:
                    e3:63:40:7d:1d:37:2b:8e:99:89:db:15:6a:d1:5c:
                    23:74:da:71:ff:02:d8:8d:a1:e1:7f:85:96:53:4c:
                    93:15:3d:4b:86:13:cc:3c:48:bc:25:cc:cc:fe:67:
                    da:5e:7e:a8:cb:9d:ce:76:70:55:33:e1:8c:82:d7:
                    9b:ab:ed:a7:8a:e7:33:73:f1:79:8f:85:19:d2:d2:
                    a5:f5:0c:24:58:94:6f:05:f4:b1:59:33:9e:a3:f9:
                    69:40:b2:7a:18:49:23:b7:4b:6c:f0:05:5c:d3:8f:
                    83:42:f6:0e:b3:bc:d3:3e:92:91:af:18:0e:23:89:
                    b5:eb
                Exponent: 65537 (0x10001)
        X509v3 extensions:
            X509v3 Basic Constraints: 
                CA:FALSE
            Netscape Comment: 
                Easy-RSA Generated Certificate
            X509v3 Subject Key Identifier: 
                DC:81:93:9D:7E:7D:F8:EE:89:76:15:32:55:44:E3:20:17:0C:5B:60
            X509v3 Authority Key Identifier: 
                keyid:2B:3B:6D:19:91:C6:66:5E:32:0A:C5:A3:08:67:42:1F:2F:8F:79:70
                DirName:/C=CN/ST=Shanghai/L=Pudong/O=MyOrganization/OU=MyOrganizationalUnit/CN=MyOrganization CA/name=EasyRSA/emailAddress=me@myhost.mydomain
                serial:A7:2B:60:99:FA:A7:5F:5F

            X509v3 Extended Key Usage: 
                TLS Web Client Authentication
            X509v3 Key Usage: 
                Digital Signature
    Signature Algorithm: sha256WithRSAEncryption
         0c:1d:a5:19:bf:fa:00:c1:16:c8:48:d2:40:47:0b:61:07:cc:
         74:49:15:f8:9a:7e:a5:69:c0:dc:ad:2e:a6:6f:0a:d1:94:2d:
         59:c4:23:bc:87:42:00:8b:11:54:eb:30:f4:a6:c6:92:d2:c2:
         db:71:1b:07:5e:ad:c6:7d:f6:33:b0:b0:42:ce:bb:d1:46:37:
         e9:02:d0:2b:4a:ed:6e:d4:9c:9b:6e:d6:08:b3:69:9e:e9:02:
         e7:67:1a:85:37:e2:6f:e5:e5:13:6a:b7:27:d9:69:ea:b0:67:
         b1:76:8e:20:0d:9f:eb:f9:71:9d:e7:89:f1:56:6c:5d:e4:07:
         14:92:d4:33:93:79:7e:ed:7e:33:2f:8e:1e:dc:ed:0c:ef:de:
         b6:02:72:c2:4e:ca:7d:c4:e6:89:4b:70:e3:ec:14:54:f2:e9:
         35:f5:b9:07:c3:c3:fa:65:c5:e6:2a:75:7b:6e:cb:94:e8:97:
         35:a0:ce:2e:fe:15:af:51:d1:5e:86:ee:52:37:a1:9b:7f:4e:
         65:62:da:53:f6:06:74:ad:13:52:d2:cd:aa:30:03:9c:b9:f1:
         e9:67:b6:db:73:52:20:dd:b6:07:88:1d:c1:b5:75:1f:74:d2:
         07:1a:fc:76:bd:d2:6c:bf:ca:99:2a:19:9b:b8:77:d5:8b:64:
         17:46:09:5b
-----BEGIN CERTIFICATE-----
MIIFWjCCBEKgAwIBAgIBAjANBgkqhkiG9w0BAQsFADCBujELMAkGA1UEBhMCQ04x
ETAPBgNVBAgTCFNoYW5naGFpMQ8wDQYDVQQHEwZQdWRvbmcxFzAVBgNVBAoTDk15
T3JnYW5pemF0aW9uMR0wGwYDVQQLExRNeU9yZ2FuaXphdGlvbmFsVW5pdDEaMBgG
A1UEAxMRTXlPcmdhbml6YXRpb24gQ0ExEDAOBgNVBCkTB0Vhc3lSU0ExITAfBgkq
hkiG9w0BCQEWEm1lQG15aG9zdC5teWRvbWFpbjAeFw0xNjA4MjEwNDU0MzRaFw0y
NjA4MTkwNDU0MzRaMIGwMQswCQYDVQQGEwJDTjERMA8GA1UECBMIU2hhbmdoYWkx
DzANBgNVBAcTBlB1ZG9uZzEXMBUGA1UEChMOTXlPcmdhbml6YXRpb24xHTAbBgNV
BAsTFE15T3JnYW5pemF0aW9uYWxVbml0MRAwDgYDVQQDEwdjbGllbnQxMRAwDgYD
VQQpEwdFYXN5UlNBMSEwHwYJKoZIhvcNAQkBFhJtZUBteWhvc3QubXlkb21haW4w
ggEiMA0GCSqGSIb3DQEBAQUAA4IBDwAwggEKAoIBAQDQuogdlgmuuui7F8xoPkzT
AQN0JmSdvFTGZBg6yslsvTZ2R9t8UQDMLrJlBV5l5jmIwnqXfKNPm7pSBacbW39q
h+5dcDLJqQi6xTLFUziF45wnW6dzKhFQG3+uYlug3NQ1ADEfT11sN+y8CvQXiwJx
7udMsXk9+CZI0iMH15ebxRx2p8rhTONjQH0dNyuOmYnbFWrRXCN02nH/AtiNoeF/
hZZTTJMVPUuGE8w8SLwlzMz+Z9pefqjLnc52cFUz4YyC15ur7aeK5zNz8XmPhRnS
0qX1DCRYlG8F9LFZM56j+WlAsnoYSSO3S2zwBVzTj4NC9g6zvNM+kpGvGA4jibXr
AgMBAAGjggFxMIIBbTAJBgNVHRMEAjAAMC0GCWCGSAGG+EIBDQQgFh5FYXN5LVJT
QSBHZW5lcmF0ZWQgQ2VydGlmaWNhdGUwHQYDVR0OBBYEFNyBk51+ffjuiXYVMlVE
4yAXDFtgMIHvBgNVHSMEgecwgeSAFCs7bRmRxmZeMgrFowhnQh8vj3lwoYHApIG9
MIG6MQswCQYDVQQGEwJDTjERMA8GA1UECBMIU2hhbmdoYWkxDzANBgNVBAcTBlB1
ZG9uZzEXMBUGA1UEChMOTXlPcmdhbml6YXRpb24xHTAbBgNVBAsTFE15T3JnYW5p
emF0aW9uYWxVbml0MRowGAYDVQQDExFNeU9yZ2FuaXphdGlvbiBDQTEQMA4GA1UE
KRMHRWFzeVJTQTEhMB8GCSqGSIb3DQEJARYSbWVAbXlob3N0Lm15ZG9tYWluggkA
pytgmfqnX18wEwYDVR0lBAwwCgYIKwYBBQUHAwIwCwYDVR0PBAQDAgeAMA0GCSqG
SIb3DQEBCwUAA4IBAQAMHaUZv/oAwRbISNJARwthB8x0SRX4mn6lacDcrS6mbwrR
lC1ZxCO8h0IAixFU6zD0psaS0sLbcRsHXq3GffYzsLBCzrvRRjfpAtArSu1u1Jyb
btYIs2me6QLnZxqFN+Jv5eUTarcn2WnqsGexdo4gDZ/r+XGd54nxVmxd5AcUktQz
k3l+7X4zL44e3O0M7962AnLCTsp9xOaJS3Dj7BRU8uk19bkHw8P6ZcXmKnV7bsuU
6Jc1oM4u/hWvUdFehu5SN6Gbf05lYtpT9gZ0rRNS0s2qMAOcufHpZ7bbc1Ig3bYH
iB3BtXUfdNIHGvx2vdJsv8qZKhmbuHfVi2QXRglb
-----END CERTIFICATE-----
